target datalayout = "e-m:e-p270:32:32-p271:32:32-p272:64:64-i64:64-i128:128-f80:128-n8:16:32:64-S128"
target triple = "x86_64-pc-linux-gnu"

%"class.mu::ParserCallback" = type <{ ptr, i32, i32, i32, i32, i32, i8, [3 x i8] }>

; Function Attrs: mustprogress nounwind uwtable
define void @_ZN2mu14ParserCallbackC2EPFdiiddddddEb(ptr noundef nonnull align 8 dereferenceable(32) %0, ptr noundef %1, i1 noundef zeroext %2) unnamed_addr #5 align 2 {
  %4 = alloca ptr, align 8
  %5 = alloca ptr, align 8
  %6 = alloca i8, align 1
  store ptr %0, ptr %4, align 8, !tbaa !32
  store ptr %1, ptr %5, align 8, !tbaa !34
  %7 = zext i1 %2 to i8
  store i8 %7, ptr %6, align 1, !tbaa !35
  %8 = load ptr, ptr %4, align 8
  %9 = getelementptr inbounds nuw %"class.mu::ParserCallback", ptr %8, i32 0, i32 0
  %10 = load ptr, ptr %5, align 8, !tbaa !34
  store ptr %10, ptr %9, align 8, !tbaa !37
  %11 = getelementptr inbounds nuw %"class.mu::ParserCallback", ptr %8, i32 0, i32 1
  store i32 6, ptr %11, align 8, !tbaa !43
  %12 = getelementptr inbounds nuw %"class.mu::ParserCallback", ptr %8, i32 0, i32 2
  store i32 -1, ptr %12, align 4, !tbaa !44
  %13 = getelementptr inbounds nuw %"class.mu::ParserCallback", ptr %8, i32 0, i32 3
  store i32 2, ptr %13, align 8, !tbaa !45
  %14 = getelementptr inbounds nuw %"class.mu::ParserCallback", ptr %8, i32 0, i32 4
  store i32 28, ptr %14, align 4, !tbaa !46
  %15 = getelementptr inbounds nuw %"class.mu::ParserCallback", ptr %8, i32 0, i32 5
  store i32 1, ptr %15, align 8, !tbaa !47
  %16 = getelementptr inbounds nuw %"class.mu::ParserCallback", ptr %8, i32 0, i32 6
  %17 = load i8, ptr %6, align 1, !tbaa !35, !range !48, !noundef !49
  %18 = trunc i8 %17 to i1
  %19 = zext i1 %18 to i8
  store i8 %19, ptr %16, align 4, !tbaa !50
  ret void
}